target datalayout = "e-m:e-p270:32:32-p271:32:32-p272:64:64-i64:64-i128:128-f80:128-n8:16:32:64-S128"
target triple = "x86_64-pc-linux-gnu"

%struct.Agobj_s = type { %struct.Agtag_s, ptr }
%struct.Agtag_s = type { i32, i64 }
%struct.Agrec_s = type { ptr, ptr }
%struct.boxf = type { %struct.pointf_s, %struct.pointf_s }
%struct.pointf_s = type { double, double }
%struct.Agnodeinfo_t = type { %struct.Agrec_s, ptr, ptr, %struct.pointf_s, double, double, %struct.boxf, double, double, double, double, double, ptr, ptr, ptr, i8, i8, i8, i8, i32, i32, i32, ptr, double, i8, i8, ptr, ptr, i8, i64, i8, i8, i8, ptr, ptr, %struct.elist, %struct.elist, %struct.elist, %struct.elist, %struct.elist, ptr, i32, ptr, i32, i32, double, %struct.elist, %struct.elist, %struct.elist, %struct.elist, ptr, i32, i32, i32, [1 x double] }
%struct.elist = type { ptr, i64 }
%struct.Agedge_s = type { %struct.Agobj_s, %struct.dtlink_s_, %struct.dtlink_s_, ptr }
%struct.dtlink_s_ = type { ptr, %union.anon.0 }
%union.anon.0 = type { ptr }
%struct.nodes_t = type { ptr, i64, i64, i64 }

@stderr = external global ptr, align 8
@.str.17 = private unnamed_addr constant [20 x i8] c"realloc failed: %s\0A\00", align 1

; Function Attrs: inlinehint nounwind uwtable
define internal i32 @nodes_try_append(ptr noundef %0, ptr noundef %1) #4 {
  %3 = alloca i32, align 4
  %4 = alloca ptr, align 8
  %5 = alloca ptr, align 8
  %6 = alloca i64, align 8
  %7 = alloca i32, align 4
  %8 = alloca ptr, align 8
  %9 = alloca i64, align 8
  %10 = alloca i64, align 8
  %11 = alloca i64, align 8
  store ptr %0, ptr %4, align 8, !tbaa !63
  store ptr %1, ptr %5, align 8, !tbaa !41
  %12 = load ptr, ptr %4, align 8, !tbaa !63
  %13 = getelementptr inbounds nuw %struct.nodes_t, ptr %12, i32 0, i32 2
  %14 = load i64, ptr %13, align 8, !tbaa !141
  %15 = load ptr, ptr %4, align 8, !tbaa !63
  %16 = getelementptr inbounds nuw %struct.nodes_t, ptr %15, i32 0, i32 3
  %17 = load i64, ptr %16, align 8, !tbaa !140
  %18 = icmp eq i64 %14, %17
  br i1 %18, label %19, label %113

19:                                               ; preds = %2
  call void @llvm.lifetime.start.p0(i64 8, ptr %6) #15
  %20 = load ptr, ptr %4, align 8, !tbaa !63
  %21 = getelementptr inbounds nuw %struct.nodes_t, ptr %20, i32 0, i32 3
  %22 = load i64, ptr %21, align 8, !tbaa !140
  %23 = icmp eq i64 %22, 0
  br i1 %23, label %24, label %25

24:                                               ; preds = %19
  br label %30

25:                                               ; preds = %19
  %26 = load ptr, ptr %4, align 8, !tbaa !63
  %27 = getelementptr inbounds nuw %struct.nodes_t, ptr %26, i32 0, i32 3
  %28 = load i64, ptr %27, align 8, !tbaa !140
  %29 = mul i64 %28, 2
  br label %30

30:                                               ; preds = %25, %24
  %31 = phi i64 [ 1, %24 ], [ %29, %25 ]
  store i64 %31, ptr %6, align 8, !tbaa !77
  %32 = load i64, ptr %6, align 8, !tbaa !77
  %33 = udiv i64 -1, %32
  %34 = icmp ult i64 %33, 8
  br i1 %34, label %35, label %36

35:                                               ; preds = %30
  store i32 34, ptr %3, align 4
  store i32 1, ptr %7, align 4
  br label %110

36:                                               ; preds = %30
  call void @llvm.lifetime.start.p0(i64 8, ptr %8) #15
  %37 = load ptr, ptr %4, align 8, !tbaa !63
  %38 = getelementptr inbounds nuw %struct.nodes_t, ptr %37, i32 0, i32 0
  %39 = load ptr, ptr %38, align 8, !tbaa !152
  %40 = load i64, ptr %6, align 8, !tbaa !77
  %41 = mul i64 %40, 8
  %42 = call ptr @realloc(ptr noundef %39, i64 noundef %41) #19
  store ptr %42, ptr %8, align 8, !tbaa !70
  %43 = load ptr, ptr %8, align 8, !tbaa !70
  %44 = icmp eq ptr %43, null
  br i1 %44, label %45, label %46

45:                                               ; preds = %36
  store i32 12, ptr %3, align 4
  store i32 1, ptr %7, align 4
  br label %109

46:                                               ; preds = %36
  %47 = load ptr, ptr %8, align 8, !tbaa !70
  %48 = load ptr, ptr %4, align 8, !tbaa !63
  %49 = getelementptr inbounds nuw %struct.nodes_t, ptr %48, i32 0, i32 3
  %50 = load i64, ptr %49, align 8, !tbaa !140
  %51 = getelementptr inbounds nuw ptr, ptr %47, i64 %50
  %52 = load i64, ptr %6, align 8, !tbaa !77
  %53 = load ptr, ptr %4, align 8, !tbaa !63
  %54 = getelementptr inbounds nuw %struct.nodes_t, ptr %53, i32 0, i32 3
  %55 = load i64, ptr %54, align 8, !tbaa !140
  %56 = sub i64 %52, %55
  %57 = mul i64 %56, 8
  call void @llvm.memset.p0.i64(ptr align 8 %51, i8 0, i64 %57, i1 false)
  br label %58

58:                                               ; preds = %46
  br label %59

59:                                               ; preds = %58
  br label %60

60:                                               ; preds = %59
  %61 = load ptr, ptr %4, align 8, !tbaa !63
  %62 = getelementptr inbounds nuw %struct.nodes_t, ptr %61, i32 0, i32 1
  %63 = load i64, ptr %62, align 8, !tbaa !138
  %64 = load ptr, ptr %4, align 8, !tbaa !63
  %65 = getelementptr inbounds nuw %struct.nodes_t, ptr %64, i32 0, i32 2
  %66 = load i64, ptr %65, align 8, !tbaa !141
  %67 = add i64 %63, %66
  %68 = load ptr, ptr %4, align 8, !tbaa !63
  %69 = getelementptr inbounds nuw %struct.nodes_t, ptr %68, i32 0, i32 3
  %70 = load i64, ptr %69, align 8, !tbaa !140
  %71 = icmp ugt i64 %67, %70
  br i1 %71, label %72, label %102

72:                                               ; preds = %60
  call void @llvm.lifetime.start.p0(i64 8, ptr %9) #15
  %73 = load ptr, ptr %4, align 8, !tbaa !63
  %74 = getelementptr inbounds nuw %struct.nodes_t, ptr %73, i32 0, i32 3
  %75 = load i64, ptr %74, align 8, !tbaa !140
  %76 = load ptr, ptr %4, align 8, !tbaa !63
  %77 = getelementptr inbounds nuw %struct.nodes_t, ptr %76, i32 0, i32 1
  %78 = load i64, ptr %77, align 8, !tbaa !138
  %79 = sub i64 %75, %78
  store i64 %79, ptr %9, align 8, !tbaa !77
  call void @llvm.lifetime.start.p0(i64 8, ptr %10) #15
  %80 = load i64, ptr %6, align 8, !tbaa !77
  %81 = load i64, ptr %9, align 8, !tbaa !77
  %82 = sub i64 %80, %81
  store i64 %82, ptr %10, align 8, !tbaa !77
  br label %83

83:                                               ; preds = %72
  br label %84

84:                                               ; preds = %83
  br label %85

85:                                               ; preds = %84
  %86 = load ptr, ptr %8, align 8, !tbaa !70
  %87 = load i64, ptr %10, align 8, !tbaa !77
  %88 = getelementptr inbounds nuw ptr, ptr %86, i64 %87
  %89 = load ptr, ptr %8, align 8, !tbaa !70
  %90 = load ptr, ptr %4, align 8, !tbaa !63
  %91 = getelementptr inbounds nuw %struct.nodes_t, ptr %90, i32 0, i32 1
  %92 = load i64, ptr %91, align 8, !tbaa !138
  %93 = getelementptr inbounds nuw ptr, ptr %89, i64 %92
  %94 = load i64, ptr %9, align 8, !tbaa !77
  %95 = mul i64 %94, 8
  call void @llvm.memmove.p0.p0.i64(ptr align 8 %88, ptr align 8 %93, i64 %95, i1 false)
  br label %96

96:                                               ; preds = %85
  br label %97

97:                                               ; preds = %96
  br label %98

98:                                               ; preds = %97
  %99 = load i64, ptr %10, align 8, !tbaa !77
  %100 = load ptr, ptr %4, align 8, !tbaa !63
  %101 = getelementptr inbounds nuw %struct.nodes_t, ptr %100, i32 0, i32 1
  store i64 %99, ptr %101, align 8, !tbaa !138
  call void @llvm.lifetime.end.p0(i64 8, ptr %10) #15
  call void @llvm.lifetime.end.p0(i64 8, ptr %9) #15
  br label %102

102:                                              ; preds = %98, %60
  %103 = load ptr, ptr %8, align 8, !tbaa !70
  %104 = load ptr, ptr %4, align 8, !tbaa !63
  %105 = getelementptr inbounds nuw %struct.nodes_t, ptr %104, i32 0, i32 0
  store ptr %103, ptr %105, align 8, !tbaa !152
  %106 = load i64, ptr %6, align 8, !tbaa !77
  %107 = load ptr, ptr %4, align 8, !tbaa !63
  %108 = getelementptr inbounds nuw %struct.nodes_t, ptr %107, i32 0, i32 3
  store i64 %106, ptr %108, align 8, !tbaa !140
  store i32 0, ptr %7, align 4
  br label %109

109:                                              ; preds = %102, %45
  call void @llvm.lifetime.end.p0(i64 8, ptr %8) #15
  br label %110

110:                                              ; preds = %109, %35
  call void @llvm.lifetime.end.p0(i64 8, ptr %6) #15
  %111 = load i32, ptr %7, align 4
  switch i32 %111, label %140 [
    i32 0, label %112
    i32 1, label %138
  ]

112:                                              ; preds = %110
  br label %113

113:                                              ; preds = %112, %2
  call void @llvm.lifetime.start.p0(i64 8, ptr %11) #15
  %114 = load ptr, ptr %4, align 8, !tbaa !63
  %115 = getelementptr inbounds nuw %struct.nodes_t, ptr %114, i32 0, i32 1
  %116 = load i64, ptr %115, align 8, !tbaa !138
  %117 = load ptr, ptr %4, align 8, !tbaa !63
  %118 = getelementptr inbounds nuw %struct.nodes_t, ptr %117, i32 0, i32 2
  %119 = load i64, ptr %118, align 8, !tbaa !141
  %120 = add i64 %116, %119
  %121 = load ptr, ptr %4, align 8, !tbaa !63
  %122 = getelementptr inbounds nuw %struct.nodes_t, ptr %121, i32 0, i32 3
  %123 = load i64, ptr %122, align 8, !tbaa !140
  %124 = urem i64 %120, %123
  store i64 %124, ptr %11, align 8, !tbaa !77
  br label %125

125:                                              ; preds = %113
  br label %126

126:                                              ; preds = %125
  br label %127

127:                                              ; preds = %126
  %128 = load ptr, ptr %5, align 8, !tbaa !41
  %129 = load ptr, ptr %4, align 8, !tbaa !63
  %130 = getelementptr inbounds nuw %struct.nodes_t, ptr %129, i32 0, i32 0
  %131 = load ptr, ptr %130, align 8, !tbaa !152
  %132 = load i64, ptr %11, align 8, !tbaa !77
  %133 = getelementptr inbounds nuw ptr, ptr %131, i64 %132
  store ptr %128, ptr %133, align 8, !tbaa !41
  %134 = load ptr, ptr %4, align 8, !tbaa !63
  %135 = getelementptr inbounds nuw %struct.nodes_t, ptr %134, i32 0, i32 2
  %136 = load i64, ptr %135, align 8, !tbaa !141
  %137 = add i64 %136, 1
  store i64 %137, ptr %135, align 8, !tbaa !141
  store i32 0, ptr %3, align 4
  store i32 1, ptr %7, align 4
  call void @llvm.lifetime.end.p0(i64 8, ptr %11) #15
  br label %138

138:                                              ; preds = %127, %110
  %139 = load i32, ptr %3, align 4
  ret i32 %139

140:                                              ; preds = %110
  unreachable
}

; Function Attrs: inlinehint nounwind uwtable
define internal void @nodes_append(ptr noundef %0, ptr noundef %1) #4 {
  %3 = alloca ptr, align 8
  %4 = alloca ptr, align 8
  %5 = alloca i32, align 4
  store ptr %0, ptr %3, align 8, !tbaa !63
  store ptr %1, ptr %4, align 8, !tbaa !41
  call void @llvm.lifetime.start.p0(i64 4, ptr %5) #15
  %6 = load ptr, ptr %3, align 8, !tbaa !63
  %7 = load ptr, ptr %4, align 8, !tbaa !41
  %8 = call i32 @nodes_try_append(ptr noundef %6, ptr noundef %7)
  store i32 %8, ptr %5, align 4, !tbaa !33
  %9 = load i32, ptr %5, align 4, !tbaa !33
  %10 = icmp ne i32 %9, 0
  br i1 %10, label %11, label %16

11:                                               ; preds = %2
  %12 = load ptr, ptr @stderr, align 8, !tbaa !89
  %13 = load i32, ptr %5, align 4, !tbaa !33
  %14 = call ptr @strerror(i32 noundef %13) #15
  %15 = call i32 (ptr, ptr, ...) @fprintf(ptr noundef %12, ptr noundef @.str.17, ptr noundef %14) #15
  call void @graphviz_exit(i32 noundef 1) #16
  unreachable

16:                                               ; preds = %2
  call void @llvm.lifetime.end.p0(i64 4, ptr %5) #15
  ret void
}

; Function Attrs: nounwind uwtable
define internal void @postorder(ptr noundef %0, ptr noundef %1, ptr noundef %2, i32 noundef %3) #0 {
  %5 = alloca ptr, align 8
  %6 = alloca ptr, align 8
  %7 = alloca ptr, align 8
  %8 = alloca i32, align 4
  %9 = alloca ptr, align 8
  %10 = alloca i32, align 4
  store ptr %0, ptr %5, align 8, !tbaa !3
  store ptr %1, ptr %6, align 8, !tbaa !41
  store ptr %2, ptr %7, align 8, !tbaa !63
  store i32 %3, ptr %8, align 4, !tbaa !33
  call void @llvm.lifetime.start.p0(i64 8, ptr %9) #15
  call void @llvm.lifetime.start.p0(i64 4, ptr %10) #15
  %11 = load ptr, ptr %6, align 8, !tbaa !41
  %12 = getelementptr inbounds nuw %struct.Agobj_s, ptr %11, i32 0, i32 1
  %13 = load ptr, ptr %12, align 8, !tbaa !8
  %14 = getelementptr inbounds nuw %struct.Agnodeinfo_t, ptr %13, i32 0, i32 29
  store i64 1, ptr %14, align 8, !tbaa !124
  %15 = load ptr, ptr %6, align 8, !tbaa !41
  %16 = getelementptr inbounds nuw %struct.Agobj_s, ptr %15, i32 0, i32 1
  %17 = load ptr, ptr %16, align 8, !tbaa !8
  %18 = getelementptr inbounds nuw %struct.Agnodeinfo_t, ptr %17, i32 0, i32 37
  %19 = getelementptr inbounds nuw %struct.elist, ptr %18, i32 0, i32 1
  %20 = load i64, ptr %19, align 8, !tbaa !173
  %21 = icmp ugt i64 %20, 0
  br i1 %21, label %22, label %83

22:                                               ; preds = %4
  store i32 0, ptr %10, align 4, !tbaa !33
  br label %23

23:                                               ; preds = %79, %22
  %24 = load ptr, ptr %6, align 8, !tbaa !41
  %25 = getelementptr inbounds nuw %struct.Agobj_s, ptr %24, i32 0, i32 1
  %26 = load ptr, ptr %25, align 8, !tbaa !8
  %27 = getelementptr inbounds nuw %struct.Agnodeinfo_t, ptr %26, i32 0, i32 37
  %28 = getelementptr inbounds nuw %struct.elist, ptr %27, i32 0, i32 0
  %29 = load ptr, ptr %28, align 8, !tbaa !101
  %30 = load i32, ptr %10, align 4, !tbaa !33
  %31 = sext i32 %30 to i64
  %32 = getelementptr inbounds ptr, ptr %29, i64 %31
  %33 = load ptr, ptr %32, align 8, !tbaa !49
  store ptr %33, ptr %9, align 8, !tbaa !49
  %34 = icmp ne ptr %33, null
  br i1 %34, label %35, label %82

35:                                               ; preds = %23
  %36 = load ptr, ptr %5, align 8, !tbaa !3
  %37 = load ptr, ptr %9, align 8, !tbaa !49
  %38 = call zeroext i1 @constraining_flat_edge(ptr noundef %36, ptr noundef %37)
  br i1 %38, label %40, label %39

39:                                               ; preds = %35
  br label %79

40:                                               ; preds = %35
  %41 = load ptr, ptr %9, align 8, !tbaa !49
  %42 = getelementptr inbounds nuw %struct.Agobj_s, ptr %41, i32 0, i32 0
  %43 = load i32, ptr %42, align 8
  %44 = and i32 %43, 3
  %45 = icmp eq i32 %44, 2
  br i1 %45, label %46, label %48

46:                                               ; preds = %40
  %47 = load ptr, ptr %9, align 8, !tbaa !49
  br label %51

48:                                               ; preds = %40
  %49 = load ptr, ptr %9, align 8, !tbaa !49
  %50 = getelementptr inbounds %struct.Agedge_s, ptr %49, i64 -1
  br label %51

51:                                               ; preds = %48, %46
  %52 = phi ptr [ %47, %46 ], [ %50, %48 ]
  %53 = getelementptr inbounds nuw %struct.Agedge_s, ptr %52, i32 0, i32 3
  %54 = load ptr, ptr %53, align 8, !tbaa !51
  %55 = getelementptr inbounds nuw %struct.Agobj_s, ptr %54, i32 0, i32 1
  %56 = load ptr, ptr %55, align 8, !tbaa !8
  %57 = getelementptr inbounds nuw %struct.Agnodeinfo_t, ptr %56, i32 0, i32 29
  %58 = load i64, ptr %57, align 8, !tbaa !124
  %59 = icmp ne i64 %58, 0
  br i1 %59, label %78, label %60

60:                                               ; preds = %51
  %61 = load ptr, ptr %5, align 8, !tbaa !3
  %62 = load ptr, ptr %9, align 8, !tbaa !49
  %63 = getelementptr inbounds nuw %struct.Agobj_s, ptr %62, i32 0, i32 0
  %64 = load i32, ptr %63, align 8
  %65 = and i32 %64, 3
  %66 = icmp eq i32 %65, 2
  br i1 %66, label %67, label %69

67:                                               ; preds = %60
  %68 = load ptr, ptr %9, align 8, !tbaa !49
  br label %72

69:                                               ; preds = %60
  %70 = load ptr, ptr %9, align 8, !tbaa !49
  %71 = getelementptr inbounds %struct.Agedge_s, ptr %70, i64 -1
  br label %72

72:                                               ; preds = %69, %67
  %73 = phi ptr [ %68, %67 ], [ %71, %69 ]
  %74 = getelementptr inbounds nuw %struct.Agedge_s, ptr %73, i32 0, i32 3
  %75 = load ptr, ptr %74, align 8, !tbaa !51
  %76 = load ptr, ptr %7, align 8, !tbaa !63
  %77 = load i32, ptr %8, align 4, !tbaa !33
  call void @postorder(ptr noundef %61, ptr noundef %75, ptr noundef %76, i32 noundef %77)
  br label %78

78:                                               ; preds = %72, %51
  br label %79

79:                                               ; preds = %78, %39
  %80 = load i32, ptr %10, align 4, !tbaa !33
  %81 = add nsw i32 %80, 1
  store i32 %81, ptr %10, align 4, !tbaa !33
  br label %23, !llvm.loop !207

82:                                               ; preds = %23
  br label %83

83:                                               ; preds = %82, %4
  %84 = load ptr, ptr %7, align 8, !tbaa !63
  %85 = load ptr, ptr %6, align 8, !tbaa !41
  call void @nodes_append(ptr noundef %84, ptr noundef %85)
  call void @llvm.lifetime.end.p0(i64 4, ptr %10) #15
  call void @llvm.lifetime.end.p0(i64 8, ptr %9) #15
  ret void
}