; Function Attrs: nounwind uwtable
define internal fastcc void @postorder(ptr noundef %0, ptr noundef %1, ptr noundef nonnull captures(none) %2) unnamed_addr #0 {
  %4 = getelementptr inbounds nuw i8, ptr %1, i64 16
  %5 = load ptr, ptr %4, align 8, !tbaa !3
  %6 = getelementptr inbounds nuw i8, ptr %5, i64 224
  store i64 1, ptr %6, align 8, !tbaa !159
  %7 = getelementptr inbounds nuw i8, ptr %5, i64 296
  %8 = load i64, ptr %7, align 8, !tbaa !131
  %.not = icmp eq i64 %8, 0
  br i1 %.not, label %.loopexit, label %.preheader

.preheader:                                       ; preds = %3
  %9 = getelementptr inbounds nuw i8, ptr %5, i64 288
  %10 = load ptr, ptr %9, align 8, !tbaa !97
  %11 = load ptr, ptr %10, align 8, !tbaa !50
  %.not1820 = icmp eq ptr %11, null
  br i1 %.not1820, label %.loopexit, label %.lr.ph

.lr.ph:                                           ; preds = %.preheader, %26
  %indvars.iv = phi i64 [ %indvars.iv.next, %26 ], [ 0, %.preheader ]
  %12 = phi ptr [ %31, %26 ], [ %11, %.preheader ]
  %13 = tail call fastcc zeroext i1 @constraining_flat_edge(ptr noundef %0, ptr noundef nonnull %12)
  br i1 %13, label %14, label %26

14:                                               ; preds = %.lr.ph
  %15 = load i32, ptr %12, align 8
  %16 = and i32 %15, 3
  %17 = icmp eq i32 %16, 2
  %.idx = select i1 %17, i64 0, i64 -64
  %18 = getelementptr inbounds i8, ptr %12, i64 %.idx
  %19 = getelementptr inbounds nuw i8, ptr %18, i64 56
  %20 = load ptr, ptr %19, align 8, !tbaa !51
  %21 = getelementptr inbounds nuw i8, ptr %20, i64 16
  %22 = load ptr, ptr %21, align 8, !tbaa !3
  %23 = getelementptr inbounds nuw i8, ptr %22, i64 224
  %24 = load i64, ptr %23, align 8, !tbaa !159
  %.not19 = icmp eq i64 %24, 0
  br i1 %.not19, label %25, label %26

25:                                               ; preds = %14
  tail call fastcc void @postorder(ptr noundef %0, ptr noundef nonnull %20, ptr noundef %2)
  br label %26

26:                                               ; preds = %14, %25, %.lr.ph
  %indvars.iv.next = add nuw nsw i64 %indvars.iv, 1
  %27 = load ptr, ptr %4, align 8, !tbaa !3
  %28 = getelementptr inbounds nuw i8, ptr %27, i64 288
  %29 = load ptr, ptr %28, align 8, !tbaa !97
  %30 = getelementptr inbounds nuw ptr, ptr %29, i64 %indvars.iv.next
  %31 = load ptr, ptr %30, align 8, !tbaa !50
  %.not18 = icmp eq ptr %31, null
  br i1 %.not18, label %.loopexit, label %.lr.ph, !llvm.loop !235

.loopexit:                                        ; preds = %26, %.preheader, %3
  %32 = getelementptr inbounds nuw i8, ptr %2, i64 16
  %33 = load i64, ptr %32, align 8, !tbaa !167
  %34 = getelementptr inbounds nuw i8, ptr %2, i64 24
  %35 = load i64, ptr %34, align 8, !tbaa !163
  %36 = icmp eq i64 %33, %35
  br i1 %36, label %37, label %._crit_edge.i.i

._crit_edge.i.i:                                  ; preds = %.loopexit
  %.phi.trans.insert.i.i = getelementptr inbounds nuw i8, ptr %2, i64 8
  %.pre.i.i = load i64, ptr %.phi.trans.insert.i.i, align 8, !tbaa !165
  %.pre46.i.i = load ptr, ptr %2, align 8, !tbaa !166
  br label %nodes_append.exit

37:                                               ; preds = %.loopexit
  %38 = icmp eq i64 %33, 0
  %39 = shl i64 %33, 1
  %spec.select.i.i = select i1 %38, i64 1, i64 %39
  %mul.ov.i.i = icmp ugt i64 %spec.select.i.i, 2305843009213693951
  br i1 %mul.ov.i.i, label %63, label %40

40:                                               ; preds = %37
  %41 = load ptr, ptr %2, align 8, !tbaa !166
  %42 = shl nuw i64 %spec.select.i.i, 3
  %43 = tail call ptr @realloc(ptr noundef %41, i64 noundef %42) #24
  %44 = icmp eq ptr %43, null
  br i1 %44, label %63, label %45

45:                                               ; preds = %40
  %46 = load i64, ptr %34, align 8, !tbaa !163
  %47 = getelementptr inbounds nuw ptr, ptr %43, i64 %46
  %48 = sub i64 %spec.select.i.i, %46
  %49 = shl i64 %48, 3
  tail call void @llvm.memset.p0.i64(ptr nonnull align 8 %47, i8 0, i64 %49, i1 false)
  %50 = getelementptr inbounds nuw i8, ptr %2, i64 8
  %51 = load i64, ptr %50, align 8, !tbaa !165
  %52 = load i64, ptr %32, align 8, !tbaa !167
  %53 = add i64 %52, %51
  %54 = icmp ugt i64 %53, %46
  br i1 %54, label %55, label %61

55:                                               ; preds = %45
  %56 = sub i64 %46, %51
  %57 = sub i64 %spec.select.i.i, %56
  %58 = getelementptr inbounds nuw ptr, ptr %43, i64 %57
  %59 = getelementptr inbounds nuw ptr, ptr %43, i64 %51
  %60 = shl i64 %56, 3
  tail call void @llvm.memmove.p0.p0.i64(ptr nonnull align 8 %58, ptr nonnull align 8 %59, i64 %60, i1 false)
  store i64 %57, ptr %50, align 8, !tbaa !165
  br label %61

61:                                               ; preds = %55, %45
  %62 = phi i64 [ %51, %45 ], [ %57, %55 ]
  store ptr %43, ptr %2, align 8, !tbaa !166
  store i64 %spec.select.i.i, ptr %34, align 8, !tbaa !163
  br label %nodes_append.exit

63:                                               ; preds = %40, %37
  %.2.i.ph.i = phi i32 [ 34, %37 ], [ 12, %40 ]
  %64 = load ptr, ptr @stderr, align 8, !tbaa !47
  %65 = tail call ptr @strerror(i32 noundef %.2.i.ph.i) #23
  %66 = tail call i32 (ptr, ptr, ...) @fprintf(ptr noundef %64, ptr noundef nonnull @.str.17, ptr noundef %65) #25
  tail call fastcc void @graphviz_exit() #26
  unreachable

nodes_append.exit:                                ; preds = %._crit_edge.i.i, %61
  %67 = phi ptr [ %.pre46.i.i, %._crit_edge.i.i ], [ %43, %61 ]
  %68 = phi i64 [ %35, %._crit_edge.i.i ], [ %spec.select.i.i, %61 ]
  %69 = phi i64 [ %33, %._crit_edge.i.i ], [ %52, %61 ]
  %70 = phi i64 [ %.pre.i.i, %._crit_edge.i.i ], [ %62, %61 ]
  %71 = add i64 %70, %69
  %72 = urem i64 %71, %68
  %73 = getelementptr inbounds nuw ptr, ptr %67, i64 %72
  store ptr %1, ptr %73, align 8, !tbaa !38
  %74 = add i64 %69, 1
  store i64 %74, ptr %32, align 8, !tbaa !167
  ret void
}